target datalayout = "e-m:e-p270:32:32-p271:32:32-p272:64:64-i64:64-i128:128-f80:128-n8:16:32:64-S128"
target triple = "x86_64-pc-linux-gnu"

%struct.KDF_HKDF = type { ptr, i32, %struct.PROV_DIGEST, ptr, i64, ptr, i64, ptr, i64, ptr, i64, ptr, i64, ptr, i64 }
%struct.PROV_DIGEST = type { ptr, ptr, ptr }

@.str = private unnamed_addr constant [49 x i8] c"../openssl/providers/implementations/kdfs/hkdf.c\00", align 1
@__func__.kdf_tls1_3_derive = private unnamed_addr constant [18 x i8] c"kdf_tls1_3_derive\00", align 1
@prov_tls13_hkdf_generate_secret.default_zeros = internal constant [64 x i8] zeroinitializer, align 16

; Function Attrs: nounwind uwtable
define internal i32 @prov_tls13_hkdf_generate_secret(ptr noundef %0, ptr noundef %1, ptr noundef %2, i64 noundef %3, ptr noundef %4, i64 noundef %5, ptr noundef %6, i64 noundef %7, ptr noundef %8, i64 noundef %9, ptr noundef %10, i64 noundef %11) #0 {
  %13 = alloca i32, align 4
  %14 = alloca ptr, align 8
  %15 = alloca ptr, align 8
  %16 = alloca ptr, align 8
  %17 = alloca i64, align 8
  %18 = alloca ptr, align 8
  %19 = alloca i64, align 8
  %20 = alloca ptr, align 8
  %21 = alloca i64, align 8
  %22 = alloca ptr, align 8
  %23 = alloca i64, align 8
  %24 = alloca ptr, align 8
  %25 = alloca i64, align 8
  %26 = alloca i64, align 8
  %27 = alloca i32, align 4
  %28 = alloca [64 x i8], align 16
  %29 = alloca i32, align 4
  %30 = alloca ptr, align 8
  %31 = alloca [64 x i8], align 16
  store ptr %0, ptr %14, align 8, !tbaa !32
  store ptr %1, ptr %15, align 8, !tbaa !34
  store ptr %2, ptr %16, align 8, !tbaa !28
  store i64 %3, ptr %17, align 8, !tbaa !29
  store ptr %4, ptr %18, align 8, !tbaa !28
  store i64 %5, ptr %19, align 8, !tbaa !29
  store ptr %6, ptr %20, align 8, !tbaa !28
  store i64 %7, ptr %21, align 8, !tbaa !29
  store ptr %8, ptr %22, align 8, !tbaa !28
  store i64 %9, ptr %23, align 8, !tbaa !29
  store ptr %10, ptr %24, align 8, !tbaa !28
  store i64 %11, ptr %25, align 8, !tbaa !29
  call void @llvm.lifetime.start.p0(i64 8, ptr %26) #6
  call void @llvm.lifetime.start.p0(i64 4, ptr %27) #6
  call void @llvm.lifetime.start.p0(i64 64, ptr %28) #6
  %32 = load ptr, ptr %15, align 8, !tbaa !34
  %33 = call i32 @EVP_MD_get_size(ptr noundef %32)
  store i32 %33, ptr %27, align 4, !tbaa !35
  %34 = load i32, ptr %27, align 4, !tbaa !35
  %35 = icmp sle i32 %34, 0
  br i1 %35, label %36, label %37

36:                                               ; preds = %12
  store i32 0, ptr %13, align 4
  store i32 1, ptr %29, align 4
  br label %105

37:                                               ; preds = %12
  %38 = load i32, ptr %27, align 4, !tbaa !35
  %39 = sext i32 %38 to i64
  store i64 %39, ptr %26, align 8, !tbaa !29
  %40 = load ptr, ptr %18, align 8, !tbaa !28
  %41 = icmp eq ptr %40, null
  br i1 %41, label %42, label %44

42:                                               ; preds = %37
  store ptr @prov_tls13_hkdf_generate_secret.default_zeros, ptr %18, align 8, !tbaa !28
  %43 = load i64, ptr %26, align 8, !tbaa !29
  store i64 %43, ptr %19, align 8, !tbaa !29
  br label %44

44:                                               ; preds = %42, %37
  %45 = load ptr, ptr %16, align 8, !tbaa !28
  %46 = icmp eq ptr %45, null
  br i1 %46, label %47, label %49

47:                                               ; preds = %44
  store ptr @prov_tls13_hkdf_generate_secret.default_zeros, ptr %16, align 8, !tbaa !28
  %48 = load i64, ptr %26, align 8, !tbaa !29
  store i64 %48, ptr %17, align 8, !tbaa !29
  br label %87

49:                                               ; preds = %44
  call void @llvm.lifetime.start.p0(i64 8, ptr %30) #6
  %50 = call ptr @EVP_MD_CTX_new()
  store ptr %50, ptr %30, align 8, !tbaa !47
  call void @llvm.lifetime.start.p0(i64 64, ptr %31) #6
  %51 = load ptr, ptr %30, align 8, !tbaa !47
  %52 = icmp eq ptr %51, null
  br i1 %52, label %63, label %53

53:                                               ; preds = %49
  %54 = load ptr, ptr %30, align 8, !tbaa !47
  %55 = load ptr, ptr %15, align 8, !tbaa !34
  %56 = call i32 @EVP_DigestInit_ex(ptr noundef %54, ptr noundef %55, ptr noundef null)
  %57 = icmp sle i32 %56, 0
  br i1 %57, label %63, label %58

58:                                               ; preds = %53
  %59 = load ptr, ptr %30, align 8, !tbaa !47
  %60 = getelementptr inbounds [64 x i8], ptr %31, i64 0, i64 0
  %61 = call i32 @EVP_DigestFinal_ex(ptr noundef %59, ptr noundef %60, ptr noundef null)
  %62 = icmp sle i32 %61, 0
  br i1 %62, label %63, label %65

63:                                               ; preds = %58, %53, %49
  %64 = load ptr, ptr %30, align 8, !tbaa !47
  call void @EVP_MD_CTX_free(ptr noundef %64)
  store i32 0, ptr %13, align 4
  store i32 1, ptr %29, align 4
  br label %84

65:                                               ; preds = %58
  %66 = load ptr, ptr %30, align 8, !tbaa !47
  call void @EVP_MD_CTX_free(ptr noundef %66)
  %67 = load ptr, ptr %15, align 8, !tbaa !34
  %68 = load ptr, ptr %16, align 8, !tbaa !28
  %69 = load i64, ptr %17, align 8, !tbaa !29
  %70 = load ptr, ptr %20, align 8, !tbaa !28
  %71 = load i64, ptr %21, align 8, !tbaa !29
  %72 = load ptr, ptr %22, align 8, !tbaa !28
  %73 = load i64, ptr %23, align 8, !tbaa !29
  %74 = getelementptr inbounds [64 x i8], ptr %31, i64 0, i64 0
  %75 = load i64, ptr %26, align 8, !tbaa !29
  %76 = getelementptr inbounds [64 x i8], ptr %28, i64 0, i64 0
  %77 = load i64, ptr %26, align 8, !tbaa !29
  %78 = call i32 @prov_tls13_hkdf_expand(ptr noundef %67, ptr noundef %68, i64 noundef %69, ptr noundef %70, i64 noundef %71, ptr noundef %72, i64 noundef %73, ptr noundef %74, i64 noundef %75, ptr noundef %76, i64 noundef %77)
  %79 = icmp ne i32 %78, 0
  br i1 %79, label %81, label %80

80:                                               ; preds = %65
  store i32 0, ptr %13, align 4
  store i32 1, ptr %29, align 4
  br label %84

81:                                               ; preds = %65
  %82 = getelementptr inbounds [64 x i8], ptr %28, i64 0, i64 0
  store ptr %82, ptr %16, align 8, !tbaa !28
  %83 = load i64, ptr %26, align 8, !tbaa !29
  store i64 %83, ptr %17, align 8, !tbaa !29
  store i32 0, ptr %29, align 4
  br label %84

84:                                               ; preds = %81, %80, %63
  call void @llvm.lifetime.end.p0(i64 64, ptr %31) #6
  call void @llvm.lifetime.end.p0(i64 8, ptr %30) #6
  %85 = load i32, ptr %29, align 4
  switch i32 %85, label %105 [
    i32 0, label %86
  ]

86:                                               ; preds = %84
  br label %87

87:                                               ; preds = %86, %47
  %88 = load ptr, ptr %14, align 8, !tbaa !32
  %89 = load ptr, ptr %15, align 8, !tbaa !34
  %90 = load ptr, ptr %16, align 8, !tbaa !28
  %91 = load i64, ptr %17, align 8, !tbaa !29
  %92 = load ptr, ptr %18, align 8, !tbaa !28
  %93 = load i64, ptr %19, align 8, !tbaa !29
  %94 = load ptr, ptr %24, align 8, !tbaa !28
  %95 = load i64, ptr %25, align 8, !tbaa !29
  %96 = call i32 @HKDF_Extract(ptr noundef %88, ptr noundef %89, ptr noundef %90, i64 noundef %91, ptr noundef %92, i64 noundef %93, ptr noundef %94, i64 noundef %95)
  store i32 %96, ptr %27, align 4, !tbaa !35
  %97 = load ptr, ptr %16, align 8, !tbaa !28
  %98 = getelementptr inbounds [64 x i8], ptr %28, i64 0, i64 0
  %99 = icmp eq ptr %97, %98
  br i1 %99, label %100, label %103

100:                                              ; preds = %87
  %101 = getelementptr inbounds [64 x i8], ptr %28, i64 0, i64 0
  %102 = load i64, ptr %26, align 8, !tbaa !29
  call void @OPENSSL_cleanse(ptr noundef %101, i64 noundef %102)
  br label %103

103:                                              ; preds = %100, %87
  %104 = load i32, ptr %27, align 4, !tbaa !35
  store i32 %104, ptr %13, align 4
  store i32 1, ptr %29, align 4
  br label %105

105:                                              ; preds = %103, %84, %36
  call void @llvm.lifetime.end.p0(i64 64, ptr %28) #6
  call void @llvm.lifetime.end.p0(i64 4, ptr %27) #6
  call void @llvm.lifetime.end.p0(i64 8, ptr %26) #6
  %106 = load i32, ptr %13, align 4
  ret i32 %106
}

; Function Attrs: nounwind uwtable
define internal i32 @kdf_tls1_3_derive(ptr noundef %0, ptr noundef %1, i64 noundef %2, ptr noundef %3) #0 {
  %5 = alloca i32, align 4
  %6 = alloca ptr, align 8
  %7 = alloca ptr, align 8
  %8 = alloca i64, align 8
  %9 = alloca ptr, align 8
  %10 = alloca ptr, align 8
  %11 = alloca ptr, align 8
  %12 = alloca i32, align 4
  store ptr %0, ptr %6, align 8, !tbaa !3
  store ptr %1, ptr %7, align 8, !tbaa !28
  store i64 %2, ptr %8, align 8, !tbaa !29
  store ptr %3, ptr %9, align 8, !tbaa !30
  call void @llvm.lifetime.start.p0(i64 8, ptr %10) #6
  %13 = load ptr, ptr %6, align 8, !tbaa !3
  store ptr %13, ptr %10, align 8, !tbaa !3
  call void @llvm.lifetime.start.p0(i64 8, ptr %11) #6
  %14 = call i32 @ossl_prov_is_running()
  %15 = icmp ne i32 %14, 0
  br i1 %15, label %16, label %21

16:                                               ; preds = %4
  %17 = load ptr, ptr %10, align 8, !tbaa !3
  %18 = load ptr, ptr %9, align 8, !tbaa !30
  %19 = call i32 @kdf_tls1_3_set_ctx_params(ptr noundef %17, ptr noundef %18)
  %20 = icmp ne i32 %19, 0
  br i1 %20, label %22, label %21

21:                                               ; preds = %16, %4
  store i32 0, ptr %5, align 4
  store i32 1, ptr %12, align 4
  br label %96

22:                                               ; preds = %16
  %23 = load ptr, ptr %10, align 8, !tbaa !3
  %24 = getelementptr inbounds nuw %struct.KDF_HKDF, ptr %23, i32 0, i32 2
  %25 = call ptr @ossl_prov_digest_md(ptr noundef %24)
  store ptr %25, ptr %11, align 8, !tbaa !34
  %26 = load ptr, ptr %11, align 8, !tbaa !34
  %27 = icmp eq ptr %26, null
  br i1 %27, label %28, label %29

28:                                               ; preds = %22
  call void @ERR_new()
  call void @ERR_set_debug(ptr noundef @.str, i32 noundef 813, ptr noundef @__func__.kdf_tls1_3_derive)
  call void (i32, i32, ptr, ...) @ERR_set_error(i32 noundef 57, i32 noundef 129, ptr noundef null)
  store i32 0, ptr %5, align 4
  store i32 1, ptr %12, align 4
  br label %96

29:                                               ; preds = %22
  %30 = load ptr, ptr %10, align 8, !tbaa !3
  %31 = getelementptr inbounds nuw %struct.KDF_HKDF, ptr %30, i32 0, i32 1
  %32 = load i32, ptr %31, align 8, !tbaa !27
  switch i32 %32, label %33 [
    i32 1, label %34
    i32 2, label %67
  ]

33:                                               ; preds = %29
  store i32 0, ptr %5, align 4
  store i32 1, ptr %12, align 4
  br label %96

34:                                               ; preds = %29
  %35 = load ptr, ptr %10, align 8, !tbaa !3
  %36 = getelementptr inbounds nuw %struct.KDF_HKDF, ptr %35, i32 0, i32 0
  %37 = load ptr, ptr %36, align 8, !tbaa !7
  %38 = call ptr @ossl_prov_ctx_get0_libctx(ptr noundef %37)
  %39 = load ptr, ptr %11, align 8, !tbaa !34
  %40 = load ptr, ptr %10, align 8, !tbaa !3
  %41 = getelementptr inbounds nuw %struct.KDF_HKDF, ptr %40, i32 0, i32 3
  %42 = load ptr, ptr %41, align 8, !tbaa !15
  %43 = load ptr, ptr %10, align 8, !tbaa !3
  %44 = getelementptr inbounds nuw %struct.KDF_HKDF, ptr %43, i32 0, i32 4
  %45 = load i64, ptr %44, align 8, !tbaa !16
  %46 = load ptr, ptr %10, align 8, !tbaa !3
  %47 = getelementptr inbounds nuw %struct.KDF_HKDF, ptr %46, i32 0, i32 5
  %48 = load ptr, ptr %47, align 8, !tbaa !17
  %49 = load ptr, ptr %10, align 8, !tbaa !3
  %50 = getelementptr inbounds nuw %struct.KDF_HKDF, ptr %49, i32 0, i32 6
  %51 = load i64, ptr %50, align 8, !tbaa !18
  %52 = load ptr, ptr %10, align 8, !tbaa !3
  %53 = getelementptr inbounds nuw %struct.KDF_HKDF, ptr %52, i32 0, i32 7
  %54 = load ptr, ptr %53, align 8, !tbaa !19
  %55 = load ptr, ptr %10, align 8, !tbaa !3
  %56 = getelementptr inbounds nuw %struct.KDF_HKDF, ptr %55, i32 0, i32 8
  %57 = load i64, ptr %56, align 8, !tbaa !20
  %58 = load ptr, ptr %10, align 8, !tbaa !3
  %59 = getelementptr inbounds nuw %struct.KDF_HKDF, ptr %58, i32 0, i32 9
  %60 = load ptr, ptr %59, align 8, !tbaa !21
  %61 = load ptr, ptr %10, align 8, !tbaa !3
  %62 = getelementptr inbounds nuw %struct.KDF_HKDF, ptr %61, i32 0, i32 10
  %63 = load i64, ptr %62, align 8, !tbaa !22
  %64 = load ptr, ptr %7, align 8, !tbaa !28
  %65 = load i64, ptr %8, align 8, !tbaa !29
  %66 = call i32 @prov_tls13_hkdf_generate_secret(ptr noundef %38, ptr noundef %39, ptr noundef %42, i64 noundef %45, ptr noundef %48, i64 noundef %51, ptr noundef %54, i64 noundef %57, ptr noundef %60, i64 noundef %63, ptr noundef %64, i64 noundef %65)
  store i32 %66, ptr %5, align 4
  store i32 1, ptr %12, align 4
  br label %96

67:                                               ; preds = %29
  %68 = load ptr, ptr %11, align 8, !tbaa !34
  %69 = load ptr, ptr %10, align 8, !tbaa !3
  %70 = getelementptr inbounds nuw %struct.KDF_HKDF, ptr %69, i32 0, i32 5
  %71 = load ptr, ptr %70, align 8, !tbaa !17
  %72 = load ptr, ptr %10, align 8, !tbaa !3
  %73 = getelementptr inbounds nuw %struct.KDF_HKDF, ptr %72, i32 0, i32 6
  %74 = load i64, ptr %73, align 8, !tbaa !18
  %75 = load ptr, ptr %10, align 8, !tbaa !3
  %76 = getelementptr inbounds nuw %struct.KDF_HKDF, ptr %75, i32 0, i32 7
  %77 = load ptr, ptr %76, align 8, !tbaa !19
  %78 = load ptr, ptr %10, align 8, !tbaa !3
  %79 = getelementptr inbounds nuw %struct.KDF_HKDF, ptr %78, i32 0, i32 8
  %80 = load i64, ptr %79, align 8, !tbaa !20
  %81 = load ptr, ptr %10, align 8, !tbaa !3
  %82 = getelementptr inbounds nuw %struct.KDF_HKDF, ptr %81, i32 0, i32 9
  %83 = load ptr, ptr %82, align 8, !tbaa !21
  %84 = load ptr, ptr %10, align 8, !tbaa !3
  %85 = getelementptr inbounds nuw %struct.KDF_HKDF, ptr %84, i32 0, i32 10
  %86 = load i64, ptr %85, align 8, !tbaa !22
  %87 = load ptr, ptr %10, align 8, !tbaa !3
  %88 = getelementptr inbounds nuw %struct.KDF_HKDF, ptr %87, i32 0, i32 11
  %89 = load ptr, ptr %88, align 8, !tbaa !23
  %90 = load ptr, ptr %10, align 8, !tbaa !3
  %91 = getelementptr inbounds nuw %struct.KDF_HKDF, ptr %90, i32 0, i32 12
  %92 = load i64, ptr %91, align 8, !tbaa !24
  %93 = load ptr, ptr %7, align 8, !tbaa !28
  %94 = load i64, ptr %8, align 8, !tbaa !29
  %95 = call i32 @prov_tls13_hkdf_expand(ptr noundef %68, ptr noundef %71, i64 noundef %74, ptr noundef %77, i64 noundef %80, ptr noundef %83, i64 noundef %86, ptr noundef %89, i64 noundef %92, ptr noundef %93, i64 noundef %94)
  store i32 %95, ptr %5, align 4
  store i32 1, ptr %12, align 4
  br label %96

96:                                               ; preds = %67, %34, %33, %28, %21
  call void @llvm.lifetime.end.p0(i64 8, ptr %11) #6
  call void @llvm.lifetime.end.p0(i64 8, ptr %10) #6
  %97 = load i32, ptr %5, align 4
  ret i32 %97
}