; Function Attrs: nounwind uwtable
define internal range(i32 0, 2) i32 @kdf_tls1_3_derive(ptr noundef %0, ptr noundef %1, i64 noundef %2, ptr noundef %3) #0 {
  %5 = alloca [64 x i8], align 16
  %6 = alloca [64 x i8], align 16
  %7 = tail call i32 @ossl_prov_is_running() #7
  %.not = icmp eq i32 %7, 0
  br i1 %.not, label %75, label %8

8:                                                ; preds = %4
  %9 = tail call i32 @kdf_tls1_3_set_ctx_params(ptr noundef %0, ptr noundef %3)
  %.not30 = icmp eq i32 %9, 0
  br i1 %.not30, label %75, label %10

10:                                               ; preds = %8
  %11 = getelementptr inbounds nuw i8, ptr %0, i64 16
  %12 = tail call ptr @ossl_prov_digest_md(ptr noundef nonnull %11) #7
  %13 = icmp eq ptr %12, null
  br i1 %13, label %14, label %15

14:                                               ; preds = %10
  tail call void @ERR_new() #7
  tail call void @ERR_set_debug(ptr noundef nonnull @.str, i32 noundef 813, ptr noundef nonnull @__func__.kdf_tls1_3_derive) #7
  tail call void (i32, i32, ptr, ...) @ERR_set_error(i32 noundef 57, i32 noundef 129, ptr noundef null) #7
  br label %75

15:                                               ; preds = %10
  %16 = getelementptr inbounds nuw i8, ptr %0, i64 8
  %17 = load i32, ptr %16, align 8, !tbaa !26
  switch i32 %17, label %75 [
    i32 1, label %18
    i32 2, label %57
  ]

18:                                               ; preds = %15
  %19 = load ptr, ptr %0, align 8, !tbaa !3
  %20 = tail call ptr @ossl_prov_ctx_get0_libctx(ptr noundef %19) #7
  %21 = getelementptr inbounds nuw i8, ptr %0, i64 40
  %22 = load ptr, ptr %21, align 8, !tbaa !14
  %23 = getelementptr inbounds nuw i8, ptr %0, i64 48
  %24 = load i64, ptr %23, align 8, !tbaa !15
  %25 = getelementptr inbounds nuw i8, ptr %0, i64 56
  %26 = load ptr, ptr %25, align 8, !tbaa !16
  %27 = getelementptr inbounds nuw i8, ptr %0, i64 64
  %28 = load i64, ptr %27, align 8, !tbaa !17
  %29 = getelementptr inbounds nuw i8, ptr %0, i64 72
  %30 = load ptr, ptr %29, align 8, !tbaa !18
  %31 = getelementptr inbounds nuw i8, ptr %0, i64 80
  %32 = load i64, ptr %31, align 8, !tbaa !19
  %33 = getelementptr inbounds nuw i8, ptr %0, i64 88
  %34 = load ptr, ptr %33, align 8, !tbaa !20
  %35 = getelementptr inbounds nuw i8, ptr %0, i64 96
  %36 = load i64, ptr %35, align 8, !tbaa !21
  call void @llvm.lifetime.start.p0(i64 64, ptr nonnull %5) #7
  %37 = tail call i32 @EVP_MD_get_size(ptr noundef nonnull %12) #7
  %38 = icmp slt i32 %37, 1
  br i1 %38, label %prov_tls13_hkdf_generate_secret.exit, label %39

39:                                               ; preds = %18
  %40 = zext nneg i32 %37 to i64
  %41 = icmp eq ptr %26, null
  %spec.select.i = select i1 %41, i64 %40, i64 %28
  %spec.select47.i = select i1 %41, ptr @prov_tls13_hkdf_generate_secret.default_zeros, ptr %26
  %42 = icmp eq ptr %22, null
  br i1 %42, label %.thread53.i, label %44

.thread53.i:                                      ; preds = %39
  %43 = tail call fastcc i32 @HKDF_Extract(ptr noundef %20, ptr noundef nonnull %12, ptr noundef nonnull @prov_tls13_hkdf_generate_secret.default_zeros, i64 noundef %40, ptr noundef nonnull %spec.select47.i, i64 noundef %spec.select.i, ptr noundef %1, i64 noundef %2)
  br label %prov_tls13_hkdf_generate_secret.exit

44:                                               ; preds = %39
  %45 = tail call ptr @EVP_MD_CTX_new() #7
  call void @llvm.lifetime.start.p0(i64 64, ptr nonnull %6) #7
  %46 = icmp eq ptr %45, null
  br i1 %46, label %.thread.i, label %47

47:                                               ; preds = %44
  %48 = tail call i32 @EVP_DigestInit_ex(ptr noundef nonnull %45, ptr noundef nonnull %12, ptr noundef null) #7
  %49 = icmp slt i32 %48, 1
  br i1 %49, label %.thread.i, label %50

50:                                               ; preds = %47
  %51 = call i32 @EVP_DigestFinal_ex(ptr noundef nonnull %45, ptr noundef nonnull %6, ptr noundef null) #7
  %52 = icmp slt i32 %51, 1
  br i1 %52, label %.thread.i, label %53

.thread.i:                                        ; preds = %50, %47, %44
  call void @EVP_MD_CTX_free(ptr noundef %45) #7
  call void @llvm.lifetime.end.p0(i64 64, ptr nonnull %6) #7
  br label %prov_tls13_hkdf_generate_secret.exit

53:                                               ; preds = %50
  call void @EVP_MD_CTX_free(ptr noundef nonnull %45) #7
  %54 = call fastcc i32 @prov_tls13_hkdf_expand(ptr noundef nonnull %12, ptr noundef nonnull %22, i64 noundef %24, ptr noundef %30, i64 noundef %32, ptr noundef %34, i64 noundef %36, ptr noundef nonnull %6, i64 noundef %40, ptr noundef nonnull %5, i64 noundef %40)
  %.not.not.i = icmp eq i32 %54, 0
  call void @llvm.lifetime.end.p0(i64 64, ptr nonnull %6) #7
  br i1 %.not.not.i, label %prov_tls13_hkdf_generate_secret.exit, label %55

55:                                               ; preds = %53
  %56 = call fastcc i32 @HKDF_Extract(ptr noundef %20, ptr noundef nonnull %12, ptr noundef nonnull %5, i64 noundef %40, ptr noundef nonnull %spec.select47.i, i64 noundef %spec.select.i, ptr noundef %1, i64 noundef %2)
  call void @OPENSSL_cleanse(ptr noundef nonnull %5, i64 noundef %40) #7
  br label %prov_tls13_hkdf_generate_secret.exit

prov_tls13_hkdf_generate_secret.exit:             ; preds = %18, %.thread53.i, %.thread.i, %53, %55
  %.0.i = phi i32 [ 0, %53 ], [ 0, %18 ], [ %56, %55 ], [ 0, %.thread.i ], [ %43, %.thread53.i ]
  call void @llvm.lifetime.end.p0(i64 64, ptr nonnull %5) #7
  br label %75

57:                                               ; preds = %15
  %58 = getelementptr inbounds nuw i8, ptr %0, i64 56
  %59 = load ptr, ptr %58, align 8, !tbaa !16
  %60 = getelementptr inbounds nuw i8, ptr %0, i64 64
  %61 = load i64, ptr %60, align 8, !tbaa !17
  %62 = getelementptr inbounds nuw i8, ptr %0, i64 72
  %63 = load ptr, ptr %62, align 8, !tbaa !18
  %64 = getelementptr inbounds nuw i8, ptr %0, i64 80
  %65 = load i64, ptr %64, align 8, !tbaa !19
  %66 = getelementptr inbounds nuw i8, ptr %0, i64 88
  %67 = load ptr, ptr %66, align 8, !tbaa !20
  %68 = getelementptr inbounds nuw i8, ptr %0, i64 96
  %69 = load i64, ptr %68, align 8, !tbaa !21
  %70 = getelementptr inbounds nuw i8, ptr %0, i64 104
  %71 = load ptr, ptr %70, align 8, !tbaa !22
  %72 = getelementptr inbounds nuw i8, ptr %0, i64 112
  %73 = load i64, ptr %72, align 8, !tbaa !23
  %74 = tail call fastcc i32 @prov_tls13_hkdf_expand(ptr noundef %12, ptr noundef %59, i64 noundef %61, ptr noundef %63, i64 noundef %65, ptr noundef %67, i64 noundef %69, ptr noundef %71, i64 noundef %73, ptr noundef %1, i64 noundef %2)
  br label %75

75:                                               ; preds = %15, %4, %8, %57, %prov_tls13_hkdf_generate_secret.exit, %14
  %.0 = phi i32 [ 0, %14 ], [ %74, %57 ], [ %.0.i, %prov_tls13_hkdf_generate_secret.exit ], [ 0, %8 ], [ 0, %4 ], [ 0, %15 ]
  ret i32 %.0
}